Certificate:
    Data:
        Version: 3 (0x2)
        Serial Number:
            62:2e:e1:b1:88:ef:84:ff:05:70:13:94:6a:2d:bd:1d
        Signature Algorithm: sha256WithRSAEncryption
        Issuer: CN=PIV CA
        Validity
            Not Before: Jan  8 09:38:06 2020 GMT
            Not After : Dec 23 09:38:06 2022 GMT
        Subject: CN=pocdemo_piv
        Subject Public Key Info:
            Public Key Algorithm: rsaEncryption
                RSA Public-Key: (2048 bit)
                Modulus:
                    00:9f:df:d5:75:f3:12:17:57:f7:1a:7e:1e:36:d7:
                    61:57:02:45:8a:e8:03:22:c9:7c:78:b5:0b:7d:c5:
                    43:b8:d4:04:14:d0:be:f7:12:1a:1c:8d:d6:e0:10:
                    f6:8b:5f:ef:09:1d:d6:60:10:25:41:ed:03:ac:d6:
                    5c:76:c4:ca:67:64:af:24:5b:37:06:a9:64:c4:e4:
                    1c:0a:b5:8c:f8:d3:ef:85:f7:6e:0e:ba:60:f8:07:
                    3b:ff:02:1e:b3:c6:58:39:30:ef:3c:2c:94:61:09:
                    fc:10:ff:37:ee:ad:77:56:a0:1c:a9:a5:56:7b:93:
                    e7:07:09:bb:e0:97:b3:ec:73:2f:f3:31:66:c1:34:
                    49:a7:d4:92:00:d1:aa:f9:69:32:03:3c:cc:b5:a5:
                    44:d8:2c:9b:57:62:29:a7:52:05:98:2c:05:a2:3d:
                    95:5c:2d:40:42:c8:f5:63:25:f0:e7:76:51:d4:37:
                    a1:c3:fb:97:b0:0e:ff:4e:08:eb:2c:05:16:9b:09:
                    18:84:4c:a7:78:e2:5d:3a:cb:62:d2:40:69:44:12:
                    10:58:be:6a:a2:26:90:ab:40:10:4a:fa:d1:1d:59:
                    cc:1d:b1:fe:cf:17:6f:96:fd:02:8f:c3:11:18:64:
                    e6:27:d8:82:61:2b:d9:5d:53:ec:e5:79:35:7b:7e:
                    5e:5d
                Exponent: 65537 (0x10001)
        X509v3 extensions:
            X509v3 CRL Distribution Points: 

                Full Name:
                  URI:http://import-test-wavestone.s3.eu-west-3.amazonaws.com/my_ca.crl

            X509v3 Basic Constraints: 
                CA:FALSE
            X509v3 Subject Key Identifier: 
                F2:C7:76:4D:AA:75:E1:AE:5F:74:D0:A7:BB:66:87:2D:55:7B:B9:AE
            X509v3 Authority Key Identifier: 
                keyid:C1:41:54:B8:4E:4A:21:EA:AC:D4:42:EC:3F:18:41:5D:D8:20:55:6B
                DirName:/CN=PIV CA
                serial:48:DC:0F:BE:B7:AC:1F:BC:4A:86:32:5C:9B:E6:DA:5A:00:18:7C:4B

            X509v3 Extended Key Usage: 
                TLS Web Client Authentication
            X509v3 Key Usage: 
                Digital Signature
            X509v3 Subject Alternative Name: 
                email:pocdemowave@gmail.com
    Signature Algorithm: sha256WithRSAEncryption
         93:3c:29:7b:47:af:41:51:b2:bd:06:67:a0:70:e0:5e:46:f9:
         fa:37:ce:6d:de:b1:03:c5:15:78:1b:03:a2:3f:10:1b:53:88:
         2b:d6:00:96:b5:bc:15:5c:13:32:7f:19:e0:a7:8d:aa:f7:5d:
         ab:f9:f0:5b:4e:a3:11:ca:88:ad:9e:f6:7f:81:07:6d:79:5e:
         ff:f4:25:97:49:19:3c:dc:e9:87:ad:35:77:ac:4d:00:bb:80:
         11:07:16:cd:4c:98:df:bb:9d:1b:ae:65:5f:5b:0e:3c:56:36:
         0f:43:c9:d4:85:be:58:65:f4:48:bf:e4:ff:ae:40:d5:83:d5:
         49:82:77:e7:cd:e9:41:0d:6a:41:bd:ec:0a:5e:35:69:cb:bd:
         b2:69:c6:18:52:c1:e7:80:21:3a:d5:90:5a:52:54:b3:3a:0b:
         10:9f:99:00:b9:1b:0f:5b:0b:96:41:22:06:6a:e6:78:36:6f:
         f6:e4:59:3c:21:e3:90:61:2f:52:51:b8:35:10:fa:b5:e1:ce:
         a1:d9:96:4f:eb:10:86:4a:3c:cd:1e:81:18:4f:f7:31:97:7b:
         7b:31:07:bb:c7:56:77:69:95:5a:13:68:09:3f:cb:25:12:d1:
         7a:db:b0:7b:76:da:89:07:91:7c:a2:df:fe:38:6d:0d:de:a8:
         6d:bc:2f:aa
-----BEGIN CERTIFICATE-----
MIIDxzCCAq+gAwIBAgIQYi7hsYjvhP8FcBOUai29HTANBgkqhkiG9w0BAQsFADAR
MQ8wDQYDVQQDDAZQSVYgQ0EwHhcNMjAwMTA4MDkzODA2WhcNMjIxMjIzMDkzODA2
WjAWMRQwEgYDVQQDDAtwb2NkZW1vX3BpdjCCASIwDQYJKoZIhvcNAQEBBQADggEP
ADCCAQoCggEBAJ/f1XXzEhdX9xp+HjbXYVcCRYroAyLJfHi1C33FQ7jUBBTQvvcS
GhyN1uAQ9otf7wkd1mAQJUHtA6zWXHbEymdkryRbNwapZMTkHAq1jPjT74X3bg66
YPgHO/8CHrPGWDkw7zwslGEJ/BD/N+6td1agHKmlVnuT5wcJu+CXs+xzL/MxZsE0
SafUkgDRqvlpMgM8zLWlRNgsm1diKadSBZgsBaI9lVwtQELI9WMl8Od2UdQ3ocP7
l7AO/04I6ywFFpsJGIRMp3jiXTrLYtJAaUQSEFi+aqImkKtAEEr60R1ZzB2x/s8X
b5b9Ao/DERhk5ifYgmEr2V1T7OV5NXt+Xl0CAwEAAaOCARQwggEQMFIGA1UdHwRL
MEkwR6BFoEOGQWh0dHA6Ly9pbXBvcnQtdGVzdC13YXZlc3RvbmUuczMuZXUtd2Vz
dC0zLmFtYXpvbmF3cy5jb20vbXlfY2EuY3JsMAkGA1UdEwQCMAAwHQYDVR0OBBYE
FPLHdk2qdeGuX3TQp7tmhy1Ve7muMEwGA1UdIwRFMEOAFMFBVLhOSiHqrNRC7D8Y
QV3YIFVroRWkEzARMQ8wDQYDVQQDDAZQSVYgQ0GCFEjcD763rB+8SoYyXJvm2loA
GHxLMBMGA1UdJQQMMAoGCCsGAQUFBwMCMAsGA1UdDwQEAwIHgDAgBgNVHREEGTAX
gRVwb2NkZW1vd2F2ZUBnbWFpbC5jb20wDQYJKoZIhvcNAQELBQADggEBAJM8KXtH
r0FRsr0GZ6Bw4F5G+fo3zm3esQPFFXgbA6I/EBtTiCvWAJa1vBVcEzJ/GeCnjar3
Xav58FtOoxHKiK2e9n+BB215Xv/0JZdJGTzc6YetNXesTQC7gBEHFs1MmN+7nRuu
ZV9bDjxWNg9DydSFvlhl9Ei/5P+uQNWD1UmCd+fN6UENakG97ApeNWnLvbJpxhhS
weeAITrVkFpSVLM6CxCfmQC5Gw9bC5ZBIgZq5ng2b/bkWTwh45BhL1JRuDUQ+rXh
zqHZlk/rEIZKPM0egRhP9zGXe3sxB7vHVndplVoTaAk/yyUS0XrbsHt22okHkXyi
3/44bQ3eqG28L6o=
-----END CERTIFICATE-----
