Certificate:
    Data:
        Version: 3 (0x2)
        Serial Number:
            0e:bd:79:dc:8f:ba:33:6b:8d:8a:db:50:d4:63:02:c9
        Signature Algorithm: sha256WithRSAEncryption
        Issuer: CN=PIV CA
        Validity
            Not Before: Jan  8 08:54:22 2020 GMT
            Not After : Dec 23 08:54:22 2022 GMT
        Subject: CN=pocdemo_piv
        Subject Public Key Info:
            Public Key Algorithm: rsaEncryption
                RSA Public-Key: (2048 bit)
                Modulus:
                    00:cb:5d:65:e4:fa:d8:a8:f4:fc:e9:5a:b7:2f:9b:
                    5f:e7:ea:6b:1b:76:d6:43:50:fb:d6:6f:0a:07:0d:
                    7f:fb:0c:1c:ba:57:b2:28:be:c6:d1:62:a7:d9:0d:
                    64:f6:ed:b1:9e:70:c5:58:81:47:75:39:b6:bd:ce:
                    4b:4c:18:64:bf:c1:3b:7c:c6:84:9b:52:05:7f:63:
                    3a:e6:4a:7b:e2:b1:6c:d5:e5:90:d3:eb:aa:d2:fa:
                    0c:08:ad:32:98:ac:0e:48:ad:3a:ec:0b:27:57:c2:
                    b0:78:56:2b:1a:33:a9:50:e0:f2:4f:bd:49:89:3f:
                    ab:6e:38:2b:a5:b7:09:c4:a1:5b:6c:ed:fd:87:a9:
                    18:43:e2:a1:d6:c8:e8:2f:23:c3:5b:03:d3:1a:4a:
                    a2:3f:24:88:68:e5:02:b0:c7:47:52:3a:df:95:ae:
                    9d:03:68:6b:3f:cd:c8:48:d4:a9:e9:19:ab:5e:a0:
                    09:79:d3:91:86:0b:be:33:7c:4c:43:25:0d:c5:e7:
                    57:29:57:15:2d:8a:0c:ea:ee:96:9c:b1:d1:cf:7a:
                    87:16:c5:2e:28:a6:58:38:78:b4:0e:86:37:f9:be:
                    4a:4b:be:b8:bb:6f:43:02:23:30:71:67:b6:f2:85:
                    6a:13:6b:eb:fa:c5:d4:fe:c1:05:c7:d7:e6:5a:d0:
                    b0:1f
                Exponent: 65537 (0x10001)
        X509v3 extensions:
            X509v3 CRL Distribution Points: 

                Full Name:
                  URI:https://raw.githubusercontent.com/wiamelabd/pivcard/master/my_ca.crl

            X509v3 Basic Constraints: 
                CA:FALSE
            X509v3 Subject Key Identifier: 
                B8:2D:5B:3A:08:31:5D:17:F5:3F:11:30:8C:40:27:58:AA:BE:1A:E0
            X509v3 Authority Key Identifier: 
                keyid:C1:41:54:B8:4E:4A:21:EA:AC:D4:42:EC:3F:18:41:5D:D8:20:55:6B
                DirName:/CN=PIV CA
                serial:48:DC:0F:BE:B7:AC:1F:BC:4A:86:32:5C:9B:E6:DA:5A:00:18:7C:4B

            X509v3 Extended Key Usage: 
                TLS Web Client Authentication
            X509v3 Key Usage: 
                Digital Signature
            X509v3 Subject Alternative Name: 
                email:pocdemowave@gmail.com
    Signature Algorithm: sha256WithRSAEncryption
         9c:1a:d5:a3:8d:7b:00:37:98:f3:72:b2:44:4e:26:49:28:db:
         e4:57:be:be:74:79:42:15:78:5c:37:09:71:79:f4:06:35:8e:
         08:13:18:20:29:d3:07:2c:9a:2d:3d:ae:15:db:82:eb:5f:5e:
         ab:d8:82:e2:53:c9:1d:20:26:dd:5e:f0:4d:7e:cb:c3:44:35:
         0e:4f:d5:58:3b:09:d3:fc:44:e3:df:72:1a:ce:eb:ca:1d:7f:
         ec:e4:a7:f9:63:6e:61:d5:77:cc:21:38:45:01:0a:40:3e:80:
         bc:cf:dd:d9:51:b8:89:81:74:14:80:bd:e9:42:ce:f5:3d:7e:
         6b:7f:9e:d2:5e:b3:fe:8e:9d:9c:1b:d4:99:fd:57:ff:94:1b:
         ed:8b:b3:62:bc:ad:29:f5:88:40:c1:48:2f:da:55:c8:13:75:
         94:cb:66:37:6a:a7:d3:eb:e8:1c:be:15:59:92:8d:76:10:36:
         ad:bc:92:a9:8f:44:83:8a:2c:17:b9:ca:bf:bd:87:4a:f0:4c:
         6e:aa:8f:38:3f:e1:4c:aa:d1:45:84:17:3a:7f:f4:85:5d:9c:
         28:0c:47:39:62:9f:97:3b:38:2f:91:45:40:97:fe:a1:49:a7:
         8a:5f:5f:8b:29:ce:07:72:dd:06:3a:ab:7d:03:16:4b:d0:c3:
         c3:22:6f:18
-----BEGIN CERTIFICATE-----
MIIDyjCCArKgAwIBAgIQDr153I+6M2uNittQ1GMCyTANBgkqhkiG9w0BAQsFADAR
MQ8wDQYDVQQDDAZQSVYgQ0EwHhcNMjAwMTA4MDg1NDIyWhcNMjIxMjIzMDg1NDIy
WjAWMRQwEgYDVQQDDAtwb2NkZW1vX3BpdjCCASIwDQYJKoZIhvcNAQEBBQADggEP
ADCCAQoCggEBAMtdZeT62Kj0/Olaty+bX+fqaxt21kNQ+9ZvCgcNf/sMHLpXsii+
xtFip9kNZPbtsZ5wxViBR3U5tr3OS0wYZL/BO3zGhJtSBX9jOuZKe+KxbNXlkNPr
qtL6DAitMpisDkitOuwLJ1fCsHhWKxozqVDg8k+9SYk/q244K6W3CcShW2zt/Yep
GEPiodbI6C8jw1sD0xpKoj8kiGjlArDHR1I635WunQNoaz/NyEjUqekZq16gCXnT
kYYLvjN8TEMlDcXnVylXFS2KDOrulpyx0c96hxbFLiimWDh4tA6GN/m+Sku+uLtv
QwIjMHFntvKFahNr6/rF1P7BBcfX5lrQsB8CAwEAAaOCARcwggETMFUGA1UdHwRO
MEwwSqBIoEaGRGh0dHBzOi8vcmF3LmdpdGh1YnVzZXJjb250ZW50LmNvbS93aWFt
ZWxhYmQvcGl2Y2FyZC9tYXN0ZXIvbXlfY2EuY3JsMAkGA1UdEwQCMAAwHQYDVR0O
BBYEFLgtWzoIMV0X9T8RMIxAJ1iqvhrgMEwGA1UdIwRFMEOAFMFBVLhOSiHqrNRC
7D8YQV3YIFVroRWkEzARMQ8wDQYDVQQDDAZQSVYgQ0GCFEjcD763rB+8SoYyXJvm
2loAGHxLMBMGA1UdJQQMMAoGCCsGAQUFBwMCMAsGA1UdDwQEAwIHgDAgBgNVHREE
GTAXgRVwb2NkZW1vd2F2ZUBnbWFpbC5jb20wDQYJKoZIhvcNAQELBQADggEBAJwa
1aONewA3mPNyskROJkko2+RXvr50eUIVeFw3CXF59AY1jggTGCAp0wcsmi09rhXb
gutfXqvYguJTyR0gJt1e8E1+y8NENQ5P1Vg7CdP8ROPfchrO68odf+zkp/ljbmHV
d8whOEUBCkA+gLzP3dlRuImBdBSAvelCzvU9fmt/ntJes/6OnZwb1Jn9V/+UG+2L
s2K8rSn1iEDBSC/aVcgTdZTLZjdqp9Pr6By+FVmSjXYQNq28kqmPRIOKLBe5yr+9
h0rwTG6qjzg/4Uyq0UWEFzp/9IVdnCgMRzlin5c7OC+RRUCX/qFJp4pfX4spzgdy
3QY6q30DFkvQw8Mibxg=
-----END CERTIFICATE-----
