Certificate:
    Data:
        Version: 3 (0x2)
        Serial Number:
            ca:7b:b7:b6:74:ca:8f:d4:dc:7c:76:65:68:1f:21:1b
        Signature Algorithm: sha256WithRSAEncryption
        Issuer: CN=PIV CA
        Validity
            Not Before: Jan  7 15:09:24 2020 GMT
            Not After : Dec 22 15:09:24 2022 GMT
        Subject: CN=pocdemo_piv
        Subject Public Key Info:
            Public Key Algorithm: rsaEncryption
                RSA Public-Key: (2048 bit)
                Modulus:
                    00:df:31:fc:59:99:cc:b7:b4:8b:88:fb:dd:87:55:
                    f5:16:59:ee:ba:42:70:49:07:70:c9:45:f5:97:ea:
                    c5:43:92:a7:29:6a:6f:ad:51:cb:a3:67:cc:18:6e:
                    85:f3:19:96:4e:07:0a:af:ef:a8:10:d6:11:87:16:
                    96:63:ef:5a:eb:57:2c:5e:5d:0e:f1:6e:da:54:59:
                    c7:de:e4:69:da:4b:92:d8:c1:8c:ec:44:3d:de:eb:
                    20:f9:42:ee:de:ed:52:3e:ef:c7:cd:68:2c:e2:c2:
                    78:c1:79:92:fb:70:05:de:a1:c7:93:04:9f:01:d6:
                    f2:c1:48:20:df:f6:24:38:b4:18:53:93:b8:d4:a7:
                    8f:56:99:8f:fb:6d:cd:b4:ec:ac:a4:33:57:57:cb:
                    3f:84:ee:16:77:24:2a:c9:38:47:36:bc:04:c8:72:
                    a9:6c:94:c5:9f:2e:0c:8c:a2:d2:40:45:79:ac:f8:
                    04:64:56:01:db:ad:be:cb:58:eb:08:fd:a6:70:f1:
                    68:61:54:8d:fd:a5:4c:57:3d:af:01:6b:ce:27:4e:
                    f0:c5:41:cc:e3:e2:77:f1:23:8c:2f:9b:01:9b:92:
                    8b:14:e7:5c:c9:56:2b:d8:c8:9d:55:b6:23:dd:83:
                    c5:a3:8a:6c:16:d4:6b:1a:53:f6:de:a5:11:a3:87:
                    fd:7f
                Exponent: 65537 (0x10001)
        X509v3 extensions:
            X509v3 CRL Distribution Points: 

                Full Name:
                  URI:http://github.com/wiamelabd/pivcard/blob/master/my_ca.crl

            X509v3 Basic Constraints: 
                CA:FALSE
            X509v3 Subject Key Identifier: 
                FB:75:7B:DC:6A:59:B6:8A:E8:F9:14:E8:E6:11:A2:11:94:9D:41:EE
            X509v3 Authority Key Identifier: 
                keyid:C1:41:54:B8:4E:4A:21:EA:AC:D4:42:EC:3F:18:41:5D:D8:20:55:6B
                DirName:/CN=PIV CA
                serial:48:DC:0F:BE:B7:AC:1F:BC:4A:86:32:5C:9B:E6:DA:5A:00:18:7C:4B

            X509v3 Extended Key Usage: 
                TLS Web Client Authentication
            X509v3 Key Usage: 
                Digital Signature
            X509v3 Subject Alternative Name: 
                email:pocdemowave@gmail.com
    Signature Algorithm: sha256WithRSAEncryption
         67:a3:cb:2e:44:db:b1:96:e1:f6:26:32:76:bd:58:3e:85:96:
         66:12:91:d7:67:f3:50:cd:30:eb:ad:e4:85:19:e9:e9:63:87:
         86:2a:53:69:41:76:81:ef:7b:1c:41:e5:7c:97:fa:a9:5e:49:
         74:3a:79:22:d0:1a:91:4f:d4:78:14:a0:c1:4f:be:ee:1d:a3:
         0f:7b:0a:c3:d6:d8:62:11:47:00:ff:a0:02:21:fc:a3:08:ad:
         1c:9c:8c:e0:9c:2c:e1:c1:c3:97:57:fc:ab:60:d0:1f:0e:67:
         2c:f6:6a:4b:b9:05:8b:d3:f5:46:1c:d3:31:17:ee:36:fb:37:
         25:29:c2:c9:00:7f:07:c8:68:87:8e:45:1e:46:dc:b3:18:60:
         0e:75:1f:71:11:0f:1f:4a:fc:e8:67:5b:46:fa:7f:92:65:59:
         a4:4f:2b:b2:81:e9:59:85:6c:19:ce:a5:5b:d2:c1:31:c4:eb:
         73:ac:6f:32:ea:ef:1d:c8:b7:f8:5b:5b:9f:d8:6b:99:26:aa:
         4f:09:05:21:fd:95:4b:6f:73:90:8d:a8:30:d7:d7:28:f6:23:
         46:ab:52:db:04:03:4d:93:e7:2a:94:ab:ba:88:38:cf:5e:e9:
         f0:29:3f:34:35:a1:c0:96:f0:2c:08:05:8a:2d:a7:c2:6a:3e:
         f7:dd:a0:a9
-----BEGIN CERTIFICATE-----
MIIDwDCCAqigAwIBAgIRAMp7t7Z0yo/U3Hx2ZWgfIRswDQYJKoZIhvcNAQELBQAw
ETEPMA0GA1UEAwwGUElWIENBMB4XDTIwMDEwNzE1MDkyNFoXDTIyMTIyMjE1MDky
NFowFjEUMBIGA1UEAwwLcG9jZGVtb19waXYwggEiMA0GCSqGSIb3DQEBAQUAA4IB
DwAwggEKAoIBAQDfMfxZmcy3tIuI+92HVfUWWe66QnBJB3DJRfWX6sVDkqcpam+t
UcujZ8wYboXzGZZOBwqv76gQ1hGHFpZj71rrVyxeXQ7xbtpUWcfe5GnaS5LYwYzs
RD3e6yD5Qu7e7VI+78fNaCziwnjBeZL7cAXeoceTBJ8B1vLBSCDf9iQ4tBhTk7jU
p49WmY/7bc207KykM1dXyz+E7hZ3JCrJOEc2vATIcqlslMWfLgyMotJARXms+ARk
VgHbrb7LWOsI/aZw8WhhVI39pUxXPa8Ba84nTvDFQczj4nfxI4wvmwGbkosU51zJ
VivYyJ1VtiPdg8WjimwW1GsaU/bepRGjh/1/AgMBAAGjggEMMIIBCDBKBgNVHR8E
QzBBMD+gPaA7hjlodHRwOi8vZ2l0aHViLmNvbS93aWFtZWxhYmQvcGl2Y2FyZC9i
bG9iL21hc3Rlci9teV9jYS5jcmwwCQYDVR0TBAIwADAdBgNVHQ4EFgQU+3V73GpZ
toro+RTo5hGiEZSdQe4wTAYDVR0jBEUwQ4AUwUFUuE5KIeqs1ELsPxhBXdggVWuh
FaQTMBExDzANBgNVBAMMBlBJViBDQYIUSNwPvresH7xKhjJcm+baWgAYfEswEwYD
VR0lBAwwCgYIKwYBBQUHAwIwCwYDVR0PBAQDAgeAMCAGA1UdEQQZMBeBFXBvY2Rl
bW93YXZlQGdtYWlsLmNvbTANBgkqhkiG9w0BAQsFAAOCAQEAZ6PLLkTbsZbh9iYy
dr1YPoWWZhKR12fzUM0w663khRnp6WOHhipTaUF2ge97HEHlfJf6qV5JdDp5ItAa
kU/UeBSgwU++7h2jD3sKw9bYYhFHAP+gAiH8owitHJyM4Jws4cHDl1f8q2DQHw5n
LPZqS7kFi9P1RhzTMRfuNvs3JSnCyQB/B8hoh45FHkbcsxhgDnUfcREPH0r86Gdb
Rvp/kmVZpE8rsoHpWYVsGc6lW9LBMcTrc6xvMurvHci3+Ftbn9hrmSaqTwkFIf2V
S29zkI2oMNfXKPYjRqtS2wQDTZPnKpSruog4z17p8Ck/NDWhwJbwLAgFii2nwmo+
992gqQ==
-----END CERTIFICATE-----
