Certificate:
    Data:
        Version: 3 (0x2)
        Serial Number:
            8e:3b:79:ce:28:2d:a2:c7:e5:39:8a:e9:94:22:c7:63
        Signature Algorithm: sha256WithRSAEncryption
        Issuer: CN=PIV CA
        Validity
            Not Before: Jan  7 15:20:43 2020 GMT
            Not After : Dec 22 15:20:43 2022 GMT
        Subject: CN=pocdemo_piv
        Subject Public Key Info:
            Public Key Algorithm: rsaEncryption
                RSA Public-Key: (2048 bit)
                Modulus:
                    00:c1:ff:59:e7:b9:fa:31:47:95:2a:a6:1e:42:a9:
                    2a:97:6b:83:43:05:b4:87:73:11:75:54:b3:20:0d:
                    31:e9:80:7e:86:5b:90:0e:1e:c0:9a:d4:a1:db:bf:
                    ef:f6:9a:04:32:0a:db:cb:7b:87:d1:34:a9:09:c3:
                    23:a4:0a:68:11:a6:31:45:cd:c1:a7:ed:34:93:06:
                    bd:f0:bb:7a:1b:18:f5:3c:cf:b4:9b:90:05:da:51:
                    be:20:96:f2:8b:d7:43:cd:53:da:a6:82:9d:0c:2e:
                    b0:8b:41:97:c5:aa:a7:47:3a:b3:15:04:b2:bf:55:
                    0d:e8:21:ff:7a:67:0a:77:5c:39:e9:31:3a:22:3c:
                    96:c6:8c:89:8d:ea:94:bc:0f:18:32:81:13:0e:62:
                    17:7d:19:7e:6f:a0:81:c6:33:e4:d0:e9:4a:8b:60:
                    63:a6:79:49:e3:d9:81:70:98:3f:83:da:00:fd:26:
                    d7:43:1d:cf:f5:b0:42:48:ce:69:c7:c6:98:54:f1:
                    55:92:f8:cb:04:31:98:89:d2:89:af:26:66:12:2a:
                    2d:e7:48:5e:ed:39:c9:10:4a:9e:0c:14:97:16:4a:
                    cd:0f:ac:de:79:f5:f5:52:56:97:26:a3:ef:af:42:
                    ed:cf:3e:be:4d:9c:38:32:d5:f2:ef:b2:bc:23:69:
                    16:f1
                Exponent: 65537 (0x10001)
        X509v3 extensions:
            X509v3 CRL Distribution Points: 

                Full Name:
                  URI:http://raw.githubusercontent.com/wiamelabd/pivcard/master/my_ca.crl

            X509v3 Basic Constraints: 
                CA:FALSE
            X509v3 Subject Key Identifier: 
                74:17:A4:7D:1C:DD:DF:FE:6D:54:2E:D0:61:11:C0:CE:CD:DE:EE:54
            X509v3 Authority Key Identifier: 
                keyid:C1:41:54:B8:4E:4A:21:EA:AC:D4:42:EC:3F:18:41:5D:D8:20:55:6B
                DirName:/CN=PIV CA
                serial:48:DC:0F:BE:B7:AC:1F:BC:4A:86:32:5C:9B:E6:DA:5A:00:18:7C:4B

            X509v3 Extended Key Usage: 
                TLS Web Client Authentication
            X509v3 Key Usage: 
                Digital Signature
            X509v3 Subject Alternative Name: 
                email:pocdemowave@gmail.com
    Signature Algorithm: sha256WithRSAEncryption
         3e:ae:a4:f9:d1:72:69:27:96:46:aa:62:00:32:5d:ec:38:f8:
         e8:cf:7f:96:60:e3:de:9e:f1:66:cd:7e:b0:66:aa:c2:cd:9c:
         c4:f9:f1:d8:63:5d:f1:ea:6f:9f:51:a3:a3:52:8d:a9:6b:8f:
         c5:2a:45:e2:8a:b6:8d:a5:cb:3a:c1:11:0c:8c:85:c0:e3:0a:
         5d:2d:a1:9e:8a:4c:df:23:30:50:33:d7:3c:d7:ad:a5:8a:78:
         e1:7c:3c:7f:1d:ab:2a:aa:64:bb:0f:5e:2e:e1:01:f9:36:bf:
         9b:66:30:17:35:43:e2:90:e2:ba:40:92:65:4f:dc:0c:5e:d0:
         51:08:40:a9:b1:78:eb:2f:e4:36:89:64:ca:53:79:4b:ca:44:
         a7:43:a6:c8:cd:be:ef:3a:cd:a8:dc:0f:7e:73:71:af:33:84:
         e9:cc:a6:27:f2:98:b0:f2:73:cb:9e:b0:c7:79:15:18:60:46:
         dc:2a:90:73:10:b5:26:a0:8f:39:e1:3a:66:23:be:4d:dc:71:
         ac:33:42:a4:8f:11:00:23:5f:f8:bd:42:3e:7a:92:48:87:43:
         bd:32:47:5c:20:a3:01:21:e8:80:d8:a5:aa:c9:18:1d:76:72:
         ab:0c:cb:3d:2f:01:48:1e:a2:d3:f6:b9:3f:12:81:df:86:09:
         89:d0:ad:de
-----BEGIN CERTIFICATE-----
MIIDyjCCArKgAwIBAgIRAI47ec4oLaLH5TmK6ZQix2MwDQYJKoZIhvcNAQELBQAw
ETEPMA0GA1UEAwwGUElWIENBMB4XDTIwMDEwNzE1MjA0M1oXDTIyMTIyMjE1MjA0
M1owFjEUMBIGA1UEAwwLcG9jZGVtb19waXYwggEiMA0GCSqGSIb3DQEBAQUAA4IB
DwAwggEKAoIBAQDB/1nnufoxR5Uqph5CqSqXa4NDBbSHcxF1VLMgDTHpgH6GW5AO
HsCa1KHbv+/2mgQyCtvLe4fRNKkJwyOkCmgRpjFFzcGn7TSTBr3wu3obGPU8z7Sb
kAXaUb4glvKL10PNU9qmgp0MLrCLQZfFqqdHOrMVBLK/VQ3oIf96Zwp3XDnpMToi
PJbGjImN6pS8DxgygRMOYhd9GX5voIHGM+TQ6UqLYGOmeUnj2YFwmD+D2gD9JtdD
Hc/1sEJIzmnHxphU8VWS+MsEMZiJ0omvJmYSKi3nSF7tOckQSp4MFJcWSs0PrN55
9fVSVpcmo++vQu3PPr5NnDgy1fLvsrwjaRbxAgMBAAGjggEWMIIBEjBUBgNVHR8E
TTBLMEmgR6BFhkNodHRwOi8vcmF3LmdpdGh1YnVzZXJjb250ZW50LmNvbS93aWFt
ZWxhYmQvcGl2Y2FyZC9tYXN0ZXIvbXlfY2EuY3JsMAkGA1UdEwQCMAAwHQYDVR0O
BBYEFHQXpH0c3d/+bVQu0GERwM7N3u5UMEwGA1UdIwRFMEOAFMFBVLhOSiHqrNRC
7D8YQV3YIFVroRWkEzARMQ8wDQYDVQQDDAZQSVYgQ0GCFEjcD763rB+8SoYyXJvm
2loAGHxLMBMGA1UdJQQMMAoGCCsGAQUFBwMCMAsGA1UdDwQEAwIHgDAgBgNVHREE
GTAXgRVwb2NkZW1vd2F2ZUBnbWFpbC5jb20wDQYJKoZIhvcNAQELBQADggEBAD6u
pPnRcmknlkaqYgAyXew4+OjPf5Zg496e8WbNfrBmqsLNnMT58dhjXfHqb59Ro6NS
jalrj8UqReKKto2lyzrBEQyMhcDjCl0toZ6KTN8jMFAz1zzXraWKeOF8PH8dqyqq
ZLsPXi7hAfk2v5tmMBc1Q+KQ4rpAkmVP3Axe0FEIQKmxeOsv5DaJZMpTeUvKRKdD
psjNvu86zajcD35zca8zhOnMpifymLDyc8uesMd5FRhgRtwqkHMQtSagjznhOmYj
vk3ccawzQqSPEQAjX/i9Qj56kkiHQ70yR1wgowEh6IDYparJGB12cqsMyz0vAUge
otP2uT8Sgd+GCYnQrd4=
-----END CERTIFICATE-----
