Certificate:
    Data:
        Version: 3 (0x2)
        Serial Number:
            53:35:bd:4a:f1:2a:34:56:ac:ed:6f:13:df:f5:4b:ba
        Signature Algorithm: sha256WithRSAEncryption
        Issuer: CN=PIV CA
        Validity
            Not Before: Jan  7 14:11:27 2020 GMT
            Not After : Dec 22 14:11:27 2022 GMT
        Subject: CN=pocdemo_piv
        Subject Public Key Info:
            Public Key Algorithm: rsaEncryption
                RSA Public-Key: (2048 bit)
                Modulus:
                    00:ab:b6:f5:58:0c:e2:37:b7:b7:8f:b0:0c:9c:d1:
                    04:d9:b1:c2:f9:84:33:2b:0c:94:ec:0d:cd:7f:4c:
                    7f:dd:6c:e6:ed:eb:71:8c:4d:3a:1a:f5:a8:42:d7:
                    6e:21:40:0f:40:0d:9b:68:f4:fd:1b:ca:0e:06:33:
                    5a:63:9d:00:32:49:18:14:db:10:e6:f0:95:16:74:
                    5f:d2:4a:a5:f5:7d:1c:1f:6d:54:a9:7b:55:76:b3:
                    59:71:27:4a:5d:c8:a5:a8:3c:f1:00:2b:cc:77:53:
                    7e:4f:35:5d:b7:6c:6b:75:b5:33:ee:10:99:c1:07:
                    27:35:35:ee:21:83:ad:52:df:fe:72:6d:9a:65:26:
                    e3:a5:8a:6e:6d:a1:43:79:37:cc:1b:61:5c:d9:d6:
                    43:36:b1:ad:42:d6:e7:68:43:f8:da:38:c2:20:5a:
                    cb:b7:70:c0:32:b5:80:cd:16:76:10:34:d7:cc:cb:
                    15:ac:b0:2b:c2:4e:59:f8:90:a2:89:b6:1e:de:34:
                    1a:ac:11:a3:46:7b:e1:91:f1:81:df:b2:0a:bf:04:
                    6b:92:02:b6:37:1f:23:6b:46:45:c4:f3:70:4f:83:
                    4e:ff:29:1d:b5:c5:8c:5f:ec:cc:ee:62:4d:e8:f5:
                    6c:ed:b7:83:cb:14:5b:05:fb:e4:69:58:4d:4f:de:
                    d0:97
                Exponent: 65537 (0x10001)
        X509v3 extensions:
            X509v3 Basic Constraints: 
                CA:FALSE
            X509v3 Subject Key Identifier: 
                AB:38:C2:D2:5F:43:BA:FF:7E:C2:94:48:7D:53:0F:82:74:CE:F7:1E
            X509v3 Authority Key Identifier: 
                keyid:C1:41:54:B8:4E:4A:21:EA:AC:D4:42:EC:3F:18:41:5D:D8:20:55:6B
                DirName:/CN=PIV CA
                serial:48:DC:0F:BE:B7:AC:1F:BC:4A:86:32:5C:9B:E6:DA:5A:00:18:7C:4B

            X509v3 Extended Key Usage: 
                TLS Web Client Authentication
            X509v3 Key Usage: 
                Digital Signature
            X509v3 Subject Alternative Name: 
                email:pocdemowave@gmail.com
    Signature Algorithm: sha256WithRSAEncryption
         77:69:9f:23:d3:b0:d2:1f:c6:ea:31:73:83:61:91:4c:77:cf:
         e9:9e:d0:7a:1c:b0:fe:56:78:1a:ca:f5:f4:d2:c0:a2:89:84:
         c9:20:ce:dd:bd:90:c8:41:2b:61:59:12:30:a2:fe:1a:eb:03:
         3c:1d:f5:02:b3:8c:e2:f5:7b:02:51:0a:e2:49:0d:3e:af:84:
         03:81:69:9e:a3:35:e0:89:66:84:eb:2c:d2:59:e6:dc:c3:91:
         c3:fd:71:ed:b7:95:f5:a9:cd:94:28:fe:0a:15:66:2a:90:ac:
         39:e3:e9:37:b5:b0:d9:fd:cc:32:2c:25:c9:a4:09:08:ca:f2:
         b1:c7:47:73:49:a0:28:34:d9:80:74:cc:65:f8:8c:2d:b6:66:
         53:3d:35:db:f3:58:3d:a5:1a:8e:3e:1b:01:03:b1:f9:f5:13:
         60:c1:6a:81:7b:3b:c6:8a:0c:16:a8:a9:6f:b3:bd:0d:d7:46:
         96:9b:c4:ff:b4:4a:a0:cc:91:c7:98:16:c2:cb:3c:06:1e:e2:
         43:ea:11:e5:ff:e6:6c:45:ef:ab:08:cc:84:3a:85:da:2e:ae:
         5a:84:70:ee:19:50:a0:4c:9c:b7:31:fb:65:7d:8c:ba:a3:64:
         3d:af:4d:5f:fe:f2:12:cd:b1:92:49:62:a6:05:dd:6d:56:90:
         df:94:34:08
-----BEGIN CERTIFICATE-----
MIIDcTCCAlmgAwIBAgIQUzW9SvEqNFas7W8T3/VLujANBgkqhkiG9w0BAQsFADAR
MQ8wDQYDVQQDDAZQSVYgQ0EwHhcNMjAwMTA3MTQxMTI3WhcNMjIxMjIyMTQxMTI3
WjAWMRQwEgYDVQQDDAtwb2NkZW1vX3BpdjCCASIwDQYJKoZIhvcNAQEBBQADggEP
ADCCAQoCggEBAKu29VgM4je3t4+wDJzRBNmxwvmEMysMlOwNzX9Mf91s5u3rcYxN
Ohr1qELXbiFAD0ANm2j0/RvKDgYzWmOdADJJGBTbEObwlRZ0X9JKpfV9HB9tVKl7
VXazWXEnSl3Ipag88QArzHdTfk81Xbdsa3W1M+4QmcEHJzU17iGDrVLf/nJtmmUm
46WKbm2hQ3k3zBthXNnWQzaxrULW52hD+No4wiBay7dwwDK1gM0WdhA018zLFayw
K8JOWfiQoom2Ht40GqwRo0Z74ZHxgd+yCr8Ea5ICtjcfI2tGRcTzcE+DTv8pHbXF
jF/szO5iTej1bO23g8sUWwX75GlYTU/e0JcCAwEAAaOBvzCBvDAJBgNVHRMEAjAA
MB0GA1UdDgQWBBSrOMLSX0O6/37ClEh9Uw+CdM73HjBMBgNVHSMERTBDgBTBQVS4
Tkoh6qzUQuw/GEFd2CBVa6EVpBMwETEPMA0GA1UEAwwGUElWIENBghRI3A++t6wf
vEqGMlyb5tpaABh8SzATBgNVHSUEDDAKBggrBgEFBQcDAjALBgNVHQ8EBAMCB4Aw
IAYDVR0RBBkwF4EVcG9jZGVtb3dhdmVAZ21haWwuY29tMA0GCSqGSIb3DQEBCwUA
A4IBAQB3aZ8j07DSH8bqMXODYZFMd8/pntB6HLD+VngayvX00sCiiYTJIM7dvZDI
QSthWRIwov4a6wM8HfUCs4zi9XsCUQriSQ0+r4QDgWmeozXgiWaE6yzSWebcw5HD
/XHtt5X1qc2UKP4KFWYqkKw54+k3tbDZ/cwyLCXJpAkIyvKxx0dzSaAoNNmAdMxl
+IwttmZTPTXb81g9pRqOPhsBA7H59RNgwWqBezvGigwWqKlvs70N10aWm8T/tEqg
zJHHmBbCyzwGHuJD6hHl/+ZsRe+rCMyEOoXaLq5ahHDuGVCgTJy3MftlfYy6o2Q9
r01f/vISzbGSSWKmBd1tVpDflDQI
-----END CERTIFICATE-----
